#include <math.h>
#include <stdio.h>
#include <stdlib.h>
#include <string.h>

void main()
{
	int len,n,i,j,k,f,m,max,t,q[502]={0};
	char a[502]={'\0'},c[502][7]={'\0'};
	scanf("%d%s",&n,a);
	len=strlen(a);
	len=len-n+1;
	for(k=0;k<len;k++)
	{
		for(i=0;i<n;i++)
		c[k][i]=a[i+k];
	}
	max=1;
	for(k=0;k<len;k++)
	{
		for(t=k;t<len;t++)
		{
			if(strcmp(c[k],c[t])==0)
				q[k]=q[k]+1;
		}
		if(q[k]>max)
			max=q[k];
	}
	if(max==1)
		printf("NO");
	else
	{
		printf("%d\n",max);
	    for(i=0;i<len;i++)
		{
		    if(q[i]==max)
			{
		     	printf("%s\n",c[i]);
			}
		}
	}
}