; ModuleID = '51/162.c'
source_filename = "51/162.c"
target datalayout = "e-m:e-p270:32:32-p271:32:32-p272:64:64-i64:64-f80:128-n8:16:32:64-S128"
target triple = "x86_64-pc-linux-gnu"

@.str = private unnamed_addr constant [5 x i8] c"%d%s\00", align 1
@.str.1 = private unnamed_addr constant [3 x i8] c"NO\00", align 1
@.str.2 = private unnamed_addr constant [4 x i8] c"%d\0A\00", align 1
@.str.3 = private unnamed_addr constant [4 x i8] c"%s\0A\00", align 1

; Function Attrs: noinline nounwind uwtable
define dso_local void @main() #0 {
  %1 = alloca i32, align 4
  %2 = alloca i32, align 4
  %3 = alloca i32, align 4
  %4 = alloca i32, align 4
  %5 = alloca i32, align 4
  %6 = alloca i32, align 4
  %7 = alloca i32, align 4
  %8 = alloca i32, align 4
  %9 = alloca i32, align 4
  %10 = alloca [502 x i32], align 16
  %11 = alloca [502 x i8], align 16
  %12 = alloca [502 x [7 x i8]], align 16
  %13 = bitcast [502 x i32]* %10 to i8*
  call void @llvm.memset.p0i8.i64(i8* align 16 %13, i8 0, i64 2008, i1 false)
  %14 = bitcast [502 x i8]* %11 to i8*
  call void @llvm.memset.p0i8.i64(i8* align 16 %14, i8 0, i64 502, i1 false)
  %15 = bitcast [502 x [7 x i8]]* %12 to i8*
  call void @llvm.memset.p0i8.i64(i8* align 16 %15, i8 0, i64 3514, i1 false)
  %16 = getelementptr inbounds [502 x i8], [502 x i8]* %11, i64 0, i64 0
  %17 = call i32 (i8*, ...) @__isoc99_scanf(i8* getelementptr inbounds ([5 x i8], [5 x i8]* @.str, i64 0, i64 0), i32* %2, i8* %16)
  %18 = getelementptr inbounds [502 x i8], [502 x i8]* %11, i64 0, i64 0
  %19 = call i64 @strlen(i8* %18) #4
  %20 = trunc i64 %19 to i32
  store i32 %20, i32* %1, align 4
  %21 = load i32, i32* %1, align 4
  %22 = load i32, i32* %2, align 4
  %23 = sub nsw i32 %21, %22
  %24 = add nsw i32 %23, 1
  store i32 %24, i32* %1, align 4
  store i32 0, i32* %5, align 4
  br label %25

25:                                               ; preds = %51, %0
  %26 = load i32, i32* %5, align 4
  %27 = load i32, i32* %1, align 4
  %28 = icmp slt i32 %26, %27
  br i1 %28, label %29, label %54

29:                                               ; preds = %25
  store i32 0, i32* %3, align 4
  br label %30

30:                                               ; preds = %47, %29
  %31 = load i32, i32* %3, align 4
  %32 = load i32, i32* %2, align 4
  %33 = icmp slt i32 %31, %32
  br i1 %33, label %34, label %50

34:                                               ; preds = %30
  %35 = load i32, i32* %3, align 4
  %36 = load i32, i32* %5, align 4
  %37 = add nsw i32 %35, %36
  %38 = sext i32 %37 to i64
  %39 = getelementptr inbounds [502 x i8], [502 x i8]* %11, i64 0, i64 %38
  %40 = load i8, i8* %39, align 1
  %41 = load i32, i32* %5, align 4
  %42 = sext i32 %41 to i64
  %43 = getelementptr inbounds [502 x [7 x i8]], [502 x [7 x i8]]* %12, i64 0, i64 %42
  %44 = load i32, i32* %3, align 4
  %45 = sext i32 %44 to i64
  %46 = getelementptr inbounds [7 x i8], [7 x i8]* %43, i64 0, i64 %45
  store i8 %40, i8* %46, align 1
  br label %47

47:                                               ; preds = %34
  %48 = load i32, i32* %3, align 4
  %49 = add nsw i32 %48, 1
  store i32 %49, i32* %3, align 4
  br label %30

50:                                               ; preds = %30
  br label %51

51:                                               ; preds = %50
  %52 = load i32, i32* %5, align 4
  %53 = add nsw i32 %52, 1
  store i32 %53, i32* %5, align 4
  br label %25

54:                                               ; preds = %25
  store i32 1, i32* %8, align 4
  store i32 0, i32* %5, align 4
  br label %55

55:                                               ; preds = %102, %54
  %56 = load i32, i32* %5, align 4
  %57 = load i32, i32* %1, align 4
  %58 = icmp slt i32 %56, %57
  br i1 %58, label %59, label %105

59:                                               ; preds = %55
  %60 = load i32, i32* %5, align 4
  store i32 %60, i32* %9, align 4
  br label %61

61:                                               ; preds = %86, %59
  %62 = load i32, i32* %9, align 4
  %63 = load i32, i32* %1, align 4
  %64 = icmp slt i32 %62, %63
  br i1 %64, label %65, label %89

65:                                               ; preds = %61
  %66 = load i32, i32* %5, align 4
  %67 = sext i32 %66 to i64
  %68 = getelementptr inbounds [502 x [7 x i8]], [502 x [7 x i8]]* %12, i64 0, i64 %67
  %69 = getelementptr inbounds [7 x i8], [7 x i8]* %68, i64 0, i64 0
  %70 = load i32, i32* %9, align 4
  %71 = sext i32 %70 to i64
  %72 = getelementptr inbounds [502 x [7 x i8]], [502 x [7 x i8]]* %12, i64 0, i64 %71
  %73 = getelementptr inbounds [7 x i8], [7 x i8]* %72, i64 0, i64 0
  %74 = call i32 @strcmp(i8* %69, i8* %73) #4
  %75 = icmp eq i32 %74, 0
  br i1 %75, label %76, label %85

76:                                               ; preds = %65
  %77 = load i32, i32* %5, align 4
  %78 = sext i32 %77 to i64
  %79 = getelementptr inbounds [502 x i32], [502 x i32]* %10, i64 0, i64 %78
  %80 = load i32, i32* %79, align 4
  %81 = add nsw i32 %80, 1
  %82 = load i32, i32* %5, align 4
  %83 = sext i32 %82 to i64
  %84 = getelementptr inbounds [502 x i32], [502 x i32]* %10, i64 0, i64 %83
  store i32 %81, i32* %84, align 4
  br label %85

85:                                               ; preds = %76, %65
  br label %86

86:                                               ; preds = %85
  %87 = load i32, i32* %9, align 4
  %88 = add nsw i32 %87, 1
  store i32 %88, i32* %9, align 4
  br label %61

89:                                               ; preds = %61
  %90 = load i32, i32* %5, align 4
  %91 = sext i32 %90 to i64
  %92 = getelementptr inbounds [502 x i32], [502 x i32]* %10, i64 0, i64 %91
  %93 = load i32, i32* %92, align 4
  %94 = load i32, i32* %8, align 4
  %95 = icmp sgt i32 %93, %94
  br i1 %95, label %96, label %101

96:                                               ; preds = %89
  %97 = load i32, i32* %5, align 4
  %98 = sext i32 %97 to i64
  %99 = getelementptr inbounds [502 x i32], [502 x i32]* %10, i64 0, i64 %98
  %100 = load i32, i32* %99, align 4
  store i32 %100, i32* %8, align 4
  br label %101

101:                                              ; preds = %96, %89
  br label %102

102:                                              ; preds = %101
  %103 = load i32, i32* %5, align 4
  %104 = add nsw i32 %103, 1
  store i32 %104, i32* %5, align 4
  br label %55

105:                                              ; preds = %55
  %106 = load i32, i32* %8, align 4
  %107 = icmp eq i32 %106, 1
  br i1 %107, label %108, label %110

108:                                              ; preds = %105
  %109 = call i32 (i8*, ...) @printf(i8* getelementptr inbounds ([3 x i8], [3 x i8]* @.str.1, i64 0, i64 0))
  br label %135

110:                                              ; preds = %105
  %111 = load i32, i32* %8, align 4
  %112 = call i32 (i8*, ...) @printf(i8* getelementptr inbounds ([4 x i8], [4 x i8]* @.str.2, i64 0, i64 0), i32 %111)
  store i32 0, i32* %3, align 4
  br label %113

113:                                              ; preds = %131, %110
  %114 = load i32, i32* %3, align 4
  %115 = load i32, i32* %1, align 4
  %116 = icmp slt i32 %114, %115
  br i1 %116, label %117, label %134

117:                                              ; preds = %113
  %118 = load i32, i32* %3, align 4
  %119 = sext i32 %118 to i64
  %120 = getelementptr inbounds [502 x i32], [502 x i32]* %10, i64 0, i64 %119
  %121 = load i32, i32* %120, align 4
  %122 = load i32, i32* %8, align 4
  %123 = icmp eq i32 %121, %122
  br i1 %123, label %124, label %130

124:                                              ; preds = %117
  %125 = load i32, i32* %3, align 4
  %126 = sext i32 %125 to i64
  %127 = getelementptr inbounds [502 x [7 x i8]], [502 x [7 x i8]]* %12, i64 0, i64 %126
  %128 = getelementptr inbounds [7 x i8], [7 x i8]* %127, i64 0, i64 0
  %129 = call i32 (i8*, ...) @printf(i8* getelementptr inbounds ([4 x i8], [4 x i8]* @.str.3, i64 0, i64 0), i8* %128)
  br label %130

130:                                              ; preds = %124, %117
  br label %131

131:                                              ; preds = %130
  %132 = load i32, i32* %3, align 4
  %133 = add nsw i32 %132, 1
  store i32 %133, i32* %3, align 4
  br label %113

134:                                              ; preds = %113
  br label %135

135:                                              ; preds = %134, %108
  ret void
}

; Function Attrs: argmemonly nounwind willreturn
declare void @llvm.memset.p0i8.i64(i8* nocapture writeonly, i8, i64, i1 immarg) #1

declare dso_local i32 @__isoc99_scanf(i8*, ...) #2

; Function Attrs: nounwind readonly
declare dso_local i64 @strlen(i8*) #3

; Function Attrs: nounwind readonly
declare dso_local i32 @strcmp(i8*, i8*) #3

declare dso_local i32 @printf(i8*, ...) #2


!llvm.module.flags = !{!0}
!llvm.ident = !{!1}

!0 = !{i32 1, !"wchar_size", i32 4}
!1 = !{!"clang version 10.0.0-4ubuntu1 "}
